target datalayout = "e-m:e-p270:32:32-p271:32:32-p272:64:64-i64:64-i128:128-f80:128-n8:16:32:64-S128"
target triple = "x86_64-pc-linux-gnu"

%class.QFont = type <{ %class.QExplicitlySharedDataPointer, i32, [4 x i8] }>
%class.QExplicitlySharedDataPointer = type { ptr }
%class.PacketDiagram = type <{ %class.QGraphicsView, ptr, ptr, ptr, ptr, i32, [4 x i8] }>
%class.QGraphicsView = type { %class.QAbstractScrollArea }
%class.QAbstractScrollArea = type { %class.QFrame }
%class.QFrame = type { %class.QWidget }
%class.QWidget = type { %class.QObject, %class.QPaintDevice.base, ptr }
%class.QObject = type { ptr, %class.QScopedPointer }
%class.QScopedPointer = type { ptr }
%class.QPaintDevice.base = type <{ ptr, i16 }>
%class.DiagramLayout = type <{ i32, [4 x i8], double, double, double, double, %class.QFont, %class.QFont, i32, [4 x i8] }>

; Function Attrs: inlinehint mustprogress nounwind null_pointer_is_valid sspstrong uwtable
define linkonce_odr void @_ZN13DiagramLayoutD2Ev(ptr noundef align 8 dereferenceable_or_null(76) %0) unnamed_addr #6 comdat align 2 {
  %2 = alloca ptr, align 8
  store ptr %0, ptr %2, align 8
  %3 = load ptr, ptr %2, align 8
  %4 = getelementptr inbounds nuw %class.DiagramLayout, ptr %3, i32 0, i32 7
  call void @_ZN5QFontD1Ev(ptr noundef align 8 dereferenceable_or_null(12) %4) #22
  %5 = getelementptr inbounds nuw %class.DiagramLayout, ptr %3, i32 0, i32 6
  call void @_ZN5QFontD1Ev(ptr noundef align 8 dereferenceable_or_null(12) %5) #22
  ret void
}

; Function Attrs: mustprogress nounwind null_pointer_is_valid sspstrong uwtable
define void @_ZN13PacketDiagramD2Ev(ptr noundef align 8 dereferenceable_or_null(76) %0) unnamed_addr #8 align 2 {
  %2 = alloca ptr, align 8
  store ptr %0, ptr %2, align 8
  %3 = load ptr, ptr %2, align 8
  store ptr getelementptr inbounds inrange(-16, 480) ({ [62 x ptr], [10 x ptr] }, ptr @_ZTV13PacketDiagram, i32 0, i32 0, i32 2), ptr %3, align 8
  %4 = getelementptr inbounds i8, ptr %3, i64 16
  store ptr getelementptr inbounds inrange(-16, 64) ({ [62 x ptr], [10 x ptr] }, ptr @_ZTV13PacketDiagram, i32 0, i32 1, i32 2), ptr %4, align 8
  %5 = getelementptr inbounds nuw %class.PacketDiagram, ptr %3, i32 0, i32 1
  %6 = load ptr, ptr %5, align 8
  %7 = icmp eq ptr %6, null
  br i1 %7, label %9, label %8

8:                                                ; preds = %1
  call void @_ZN13DiagramLayoutD2Ev(ptr noundef align 8 dereferenceable_or_null(76) %6) #22
  call void @_ZdlPvm(ptr noundef %6, i64 noundef 80) #26
  br label %9

9:                                                ; preds = %8, %1
  call void @_ZN13QGraphicsViewD2Ev(ptr noundef align 8 dereferenceable_or_null(40) %3) #22
  ret void
}