; Function Attrs: mustprogress nounwind null_pointer_is_valid sspstrong uwtable
define void @_ZN13PacketDiagramD2Ev(ptr noundef align 8 dereferenceable_or_null(76) initializes((0, 8), (16, 24)) %0) unnamed_addr #7 align 2 {
  store ptr getelementptr inbounds nuw inrange(-16, 480) (i8, ptr @_ZTV13PacketDiagram, i64 16), ptr %0, align 8
  %2 = getelementptr inbounds nuw i8, ptr %0, i64 16
  store ptr getelementptr inbounds nuw inrange(-16, 64) (i8, ptr @_ZTV13PacketDiagram, i64 512), ptr %2, align 8
  %3 = getelementptr inbounds nuw i8, ptr %0, i64 40
  %4 = load ptr, ptr %3, align 8
  %5 = icmp eq ptr %4, null
  br i1 %5, label %9, label %6

6:                                                ; preds = %1
  %7 = getelementptr inbounds nuw i8, ptr %4, i64 56
  tail call void @_ZN5QFontD1Ev(ptr noundef nonnull align 8 dereferenceable_or_null(12) %7) #21
  %8 = getelementptr inbounds nuw i8, ptr %4, i64 40
  tail call void @_ZN5QFontD1Ev(ptr noundef nonnull align 8 dereferenceable_or_null(12) %8) #21
  tail call void @_ZdlPvm(ptr noundef nonnull %4, i64 noundef 80) #22
  br label %9

9:                                                ; preds = %6, %1
  tail call void @_ZN13QGraphicsViewD2Ev(ptr noundef align 8 dereferenceable_or_null(40) %0) #21
  ret void
}